; Function Attrs: mustprogress noreturn uwtable
define hidden void @_Z18throw_system_errorv() local_unnamed_addr #4 personality ptr @__gxx_personality_v0 {
  %1 = tail call ptr @__cxa_allocate_exception(i64 32) #26
  invoke void @_ZN3fmt3v1112system_errorIJEEESt12system_erroriNS0_7fstringIJDpT_EE1tEDpOS4_(ptr dead_on_unwind writable sret(%"class.std::system_error") align 8 %1, i32 noundef 33, ptr nonnull @.str, i64 4)
          to label %2 unwind label %3

2:                                                ; preds = %0
  tail call void @__cxa_throw(ptr %1, ptr nonnull @_ZTISt12system_error, ptr nonnull @_ZNSt12system_errorD1Ev) #27
  unreachable

3:                                                ; preds = %0
  %4 = landingpad { ptr, i32 }
          cleanup
  tail call void @__cxa_free_exception(ptr %1) #26
  resume { ptr, i32 } %4
}